target datalayout = "e-m:e-p270:32:32-p271:32:32-p272:64:64-i64:64-i128:128-f80:128-n8:16:32:64-S128"
target triple = "x86_64-pc-linux-gnu"

%struct.pmix_object_t = type { %union.pthread_mutex_t, ptr, i32, %struct.pmix_tma }
%union.pthread_mutex_t = type { %struct.__pthread_mutex_s }
%struct.__pthread_mutex_s = type { i32, i32, i32, i32, i32, i16, i16, %struct.__pthread_internal_list }
%struct.__pthread_internal_list = type { ptr, ptr }
%struct.pmix_tma = type { ptr, ptr, ptr, ptr, ptr, ptr, ptr, ptr }
%struct.pmix_shift_caddy_t = type { %struct.pmix_object_t, %struct.event, %struct.pmix_lock_t, i32, ptr, i64, i32, %struct.pmix_name_t, ptr, ptr, ptr, i64, ptr, ptr, i64, ptr, i64, ptr, ptr, ptr, ptr, ptr, ptr, i8, %union.anon.8, ptr, i64 }
%struct.event = type { %struct.event_callback, %union.anon.0, i32, ptr, %union.anon.2, i16, i16, %struct.timeval }
%struct.event_callback = type { %struct.anon, i16, i8, i8, %union.anon, ptr }
%struct.anon = type { ptr, ptr }
%union.anon = type { ptr }
%union.anon.0 = type { %struct.anon.1 }
%struct.anon.1 = type { ptr, ptr }
%union.anon.2 = type { %struct.anon.3 }
%struct.anon.3 = type { %struct.anon.4, %struct.timeval }
%struct.anon.4 = type { ptr, ptr }
%struct.timeval = type { i64, i64 }
%struct.pmix_lock_t = type { i32, %struct.pmix_mutex_t, %union.pthread_cond_t, i8 }
%struct.pmix_mutex_t = type { %struct.pmix_object_t, %union.pthread_mutex_t }
%union.pthread_cond_t = type { %struct.__pthread_cond_s }
%struct.__pthread_cond_s = type { %union.__atomic_wide_counter, %union.__atomic_wide_counter, [2 x i32], [2 x i32], i32, i32, [2 x i32] }
%union.__atomic_wide_counter = type { i64 }
%struct.pmix_name_t = type { ptr, i32 }
%union.anon.8 = type { ptr }

; Function Attrs: inlinehint nounwind uwtable
define internal void @pmix_mutex_unlock(ptr noundef %0) #4 {
  %2 = alloca ptr, align 8
  store ptr %0, ptr %2, align 8, !tbaa !99
  %3 = load ptr, ptr %2, align 8, !tbaa !99
  %4 = getelementptr inbounds nuw %struct.pmix_mutex_t, ptr %3, i32 0, i32 1
  %5 = call i32 @pthread_mutex_unlock(ptr noundef %4) #11
  ret void
}

; Function Attrs: inlinehint nounwind uwtable
define internal void @pmix_mutex_lock(ptr noundef %0) #4 {
  %2 = alloca ptr, align 8
  store ptr %0, ptr %2, align 8, !tbaa !99
  %3 = load ptr, ptr %2, align 8, !tbaa !99
  %4 = getelementptr inbounds nuw %struct.pmix_mutex_t, ptr %3, i32 0, i32 1
  %5 = call i32 @pthread_mutex_lock(ptr noundef %4) #11
  ret void
}

; Function Attrs: inlinehint nounwind uwtable
define internal void @pmix_atomic_wmb() #4 {
  fence release
  ret void
}

; Function Attrs: inlinehint nounwind uwtable
define internal void @pmix_atomic_rmb() #4 {
  fence acquire
  ret void
}

; Function Attrs: nounwind uwtable
define internal void @cbfunc(i32 noundef %0, ptr noundef %1, i64 noundef %2, ptr noundef %3, ptr noundef %4, ptr noundef %5) #0 {
  %7 = alloca i32, align 4
  %8 = alloca ptr, align 8
  %9 = alloca i64, align 8
  %10 = alloca ptr, align 8
  %11 = alloca ptr, align 8
  %12 = alloca ptr, align 8
  %13 = alloca ptr, align 8
  store i32 %0, ptr %7, align 4, !tbaa !4
  store ptr %1, ptr %8, align 8, !tbaa !45
  store i64 %2, ptr %9, align 8, !tbaa !35
  store ptr %3, ptr %10, align 8, !tbaa !13
  store ptr %4, ptr %11, align 8, !tbaa !13
  store ptr %5, ptr %12, align 8, !tbaa !13
  call void @llvm.lifetime.start.p0(i64 8, ptr %13) #11
  %14 = load ptr, ptr %10, align 8, !tbaa !13
  store ptr %14, ptr %13, align 8, !tbaa !13
  call void @pmix_atomic_rmb()
  %15 = load i32, ptr %7, align 4, !tbaa !4
  %16 = load ptr, ptr %13, align 8, !tbaa !13
  %17 = getelementptr inbounds nuw %struct.pmix_shift_caddy_t, ptr %16, i32 0, i32 3
  store i32 %15, ptr %17, align 8, !tbaa !71
  %18 = load ptr, ptr %11, align 8, !tbaa !13
  %19 = icmp ne ptr null, %18
  br i1 %19, label %20, label %23

20:                                               ; preds = %6
  %21 = load ptr, ptr %11, align 8, !tbaa !13
  %22 = load ptr, ptr %12, align 8, !tbaa !13
  call void %21(ptr noundef %22)
  br label %23

23:                                               ; preds = %20, %6
  call void @pmix_atomic_wmb()
  br label %24

24:                                               ; preds = %23
  %25 = load ptr, ptr %13, align 8, !tbaa !13
  %26 = getelementptr inbounds nuw %struct.pmix_shift_caddy_t, ptr %25, i32 0, i32 2
  %27 = getelementptr inbounds nuw %struct.pmix_lock_t, ptr %26, i32 0, i32 1
  call void @pmix_mutex_lock(ptr noundef %27)
  %28 = load ptr, ptr %13, align 8, !tbaa !13
  %29 = getelementptr inbounds nuw %struct.pmix_shift_caddy_t, ptr %28, i32 0, i32 2
  %30 = getelementptr inbounds nuw %struct.pmix_lock_t, ptr %29, i32 0, i32 3
  store volatile i8 0, ptr %30, align 8, !tbaa !69
  call void @pmix_atomic_wmb()
  %31 = load ptr, ptr %13, align 8, !tbaa !13
  %32 = getelementptr inbounds nuw %struct.pmix_shift_caddy_t, ptr %31, i32 0, i32 2
  %33 = getelementptr inbounds nuw %struct.pmix_lock_t, ptr %32, i32 0, i32 2
  %34 = call i32 @pthread_cond_broadcast(ptr noundef %33) #11
  %35 = load ptr, ptr %13, align 8, !tbaa !13
  %36 = getelementptr inbounds nuw %struct.pmix_shift_caddy_t, ptr %35, i32 0, i32 2
  %37 = getelementptr inbounds nuw %struct.pmix_lock_t, ptr %36, i32 0, i32 1
  call void @pmix_mutex_unlock(ptr noundef %37)
  br label %38

38:                                               ; preds = %24
  br label %39

39:                                               ; preds = %38
  call void @llvm.lifetime.end.p0(i64 8, ptr %13) #11
  ret void
}