; Function Attrs: nounwind uwtable
define internal void @cbfunc(i32 noundef %0, ptr readnone captures(none) %1, i64 %2, ptr noundef initializes((472, 476)) %3, ptr noundef readonly captures(address_is_null) %4, ptr noundef %5) #0 {
  fence acquire
  %7 = getelementptr inbounds nuw i8, ptr %3, i64 472
  store i32 %0, ptr %7, align 8, !tbaa !77
  %.not = icmp eq ptr %4, null
  br i1 %.not, label %9, label %8

8:                                                ; preds = %6
  tail call void %4(ptr noundef %5) #16
  br label %9

9:                                                ; preds = %8, %6
  fence release
  %10 = getelementptr inbounds nuw i8, ptr %3, i64 376
  %11 = tail call i32 @pthread_mutex_lock(ptr noundef nonnull %10) #16
  %12 = getelementptr inbounds nuw i8, ptr %3, i64 464
  store volatile i8 0, ptr %12, align 8, !tbaa !73
  fence release
  %13 = getelementptr inbounds nuw i8, ptr %3, i64 416
  %14 = tail call i32 @pthread_cond_broadcast(ptr noundef nonnull %13) #16
  %15 = tail call i32 @pthread_mutex_unlock(ptr noundef nonnull %10) #16
  ret void
}